target datalayout = "e-m:e-p270:32:32-p271:32:32-p272:64:64-i64:64-i128:128-f80:128-n8:16:32:64-S128"
target triple = "x86_64-unknown-linux-gnu"

%class.btVector3 = type { [4 x float] }
%class.btNodeOverlapCallback = type { ptr }
%struct.MyNodeOverlapCallback.9 = type <{ %class.btNodeOverlapCallback, ptr, ptr, [3 x %class.btVector3], i32, [4 x i8] }>
%class.btStridingMeshInterface = type { ptr, %class.btVector3 }

; Function Attrs: mustprogress nounwind uwtable
define linkonce_odr dso_local void @_ZN9btVector3C2ERKfS1_S1_(ptr noundef nonnull align 4 dereferenceable(16) %this, ptr noundef nonnull align 4 dereferenceable(4) %_x, ptr noundef nonnull align 4 dereferenceable(4) %_y, ptr noundef nonnull align 4 dereferenceable(4) %_z) unnamed_addr #1 comdat align 2 {
entry:
  %this.addr = alloca ptr, align 8
  %_x.addr = alloca ptr, align 8
  %_y.addr = alloca ptr, align 8
  %_z.addr = alloca ptr, align 8
  store ptr %this, ptr %this.addr, align 8
  store ptr %_x, ptr %_x.addr, align 8
  store ptr %_y, ptr %_y.addr, align 8
  store ptr %_z, ptr %_z.addr, align 8
  %this1 = load ptr, ptr %this.addr, align 8
  %0 = load ptr, ptr %_x.addr, align 8
  %1 = load float, ptr %0, align 4
  %m_floats = getelementptr inbounds %class.btVector3, ptr %this1, i32 0, i32 0
  %arrayidx = getelementptr inbounds [4 x float], ptr %m_floats, i64 0, i64 0
  store float %1, ptr %arrayidx, align 4
  %2 = load ptr, ptr %_y.addr, align 8
  %3 = load float, ptr %2, align 4
  %m_floats2 = getelementptr inbounds %class.btVector3, ptr %this1, i32 0, i32 0
  %arrayidx3 = getelementptr inbounds [4 x float], ptr %m_floats2, i64 0, i64 1
  store float %3, ptr %arrayidx3, align 4
  %4 = load ptr, ptr %_z.addr, align 8
  %5 = load float, ptr %4, align 4
  %m_floats4 = getelementptr inbounds %class.btVector3, ptr %this1, i32 0, i32 0
  %arrayidx5 = getelementptr inbounds [4 x float], ptr %m_floats4, i64 0, i64 2
  store float %5, ptr %arrayidx5, align 4
  %m_floats6 = getelementptr inbounds %class.btVector3, ptr %this1, i32 0, i32 0
  %arrayidx7 = getelementptr inbounds [4 x float], ptr %m_floats6, i64 0, i64 3
  store float 0.000000e+00, ptr %arrayidx7, align 4
  ret void
}

; Function Attrs: mustprogress nounwind uwtable
define linkonce_odr dso_local noundef nonnull align 4 dereferenceable(4) ptr @_ZNK9btVector34getZEv(ptr noundef nonnull align 4 dereferenceable(16) %this) #1 comdat align 2 {
entry:
  %this.addr = alloca ptr, align 8
  store ptr %this, ptr %this.addr, align 8
  %this1 = load ptr, ptr %this.addr, align 8
  %m_floats = getelementptr inbounds %class.btVector3, ptr %this1, i32 0, i32 0
  %arrayidx = getelementptr inbounds [4 x float], ptr %m_floats, i64 0, i64 2
  ret ptr %arrayidx
}

; Function Attrs: mustprogress nounwind uwtable
define linkonce_odr dso_local noundef nonnull align 4 dereferenceable(4) ptr @_ZNK9btVector34getYEv(ptr noundef nonnull align 4 dereferenceable(16) %this) #1 comdat align 2 {
entry:
  %this.addr = alloca ptr, align 8
  store ptr %this, ptr %this.addr, align 8
  %this1 = load ptr, ptr %this.addr, align 8
  %m_floats = getelementptr inbounds %class.btVector3, ptr %this1, i32 0, i32 0
  %arrayidx = getelementptr inbounds [4 x float], ptr %m_floats, i64 0, i64 1
  ret ptr %arrayidx
}

; Function Attrs: mustprogress nounwind uwtable
define linkonce_odr dso_local noundef nonnull align 4 dereferenceable(4) ptr @_ZNK9btVector34getXEv(ptr noundef nonnull align 4 dereferenceable(16) %this) #1 comdat align 2 {
entry:
  %this.addr = alloca ptr, align 8
  store ptr %this, ptr %this.addr, align 8
  %this1 = load ptr, ptr %this.addr, align 8
  %m_floats = getelementptr inbounds %class.btVector3, ptr %this1, i32 0, i32 0
  %arrayidx = getelementptr inbounds [4 x float], ptr %m_floats, i64 0, i64 0
  ret ptr %arrayidx
}

; Function Attrs: mustprogress nounwind uwtable
define linkonce_odr dso_local noundef nonnull align 4 dereferenceable(16) ptr @_ZNK23btStridingMeshInterface10getScalingEv(ptr noundef nonnull align 8 dereferenceable(24) %this) #1 comdat align 2 {
entry:
  %this.addr = alloca ptr, align 8
  store ptr %this, ptr %this.addr, align 8
  %this1 = load ptr, ptr %this.addr, align 8
  %m_scaling = getelementptr inbounds %class.btStridingMeshInterface, ptr %this1, i32 0, i32 1
  ret ptr %m_scaling
}

; Function Attrs: mustprogress uwtable
define internal void @_ZZNK22btBvhTriangleMeshShape19processAllTrianglesEP18btTriangleCallbackRK9btVector3S4_EN21MyNodeOverlapCallback11processNodeEii(ptr noundef nonnull align 8 dereferenceable(76) %this, i32 noundef %nodeSubPart, i32 noundef %nodeTriangleIndex) unnamed_addr #2 align 2 {
entry:
  %this.addr = alloca ptr, align 8
  %nodeSubPart.addr = alloca i32, align 4
  %nodeTriangleIndex.addr = alloca i32, align 4
  %vertexbase = alloca ptr, align 8
  %numverts = alloca i32, align 4
  %type = alloca i32, align 4
  %stride = alloca i32, align 4
  %indexbase = alloca ptr, align 8
  %indexstride = alloca i32, align 4
  %numfaces = alloca i32, align 4
  %indicestype = alloca i32, align 4
  %gfxbase = alloca ptr, align 8
  %meshScaling = alloca ptr, align 8
  %j = alloca i32, align 4
  %graphicsindex = alloca i32, align 4
  %graphicsbase = alloca ptr, align 8
  %ref.tmp = alloca %class.btVector3, align 4
  %ref.tmp18 = alloca float, align 4
  %ref.tmp22 = alloca float, align 4
  %ref.tmp26 = alloca float, align 4
  %graphicsbase32 = alloca ptr, align 8
  %ref.tmp36 = alloca %class.btVector3, align 4
  %ref.tmp37 = alloca float, align 4
  %ref.tmp42 = alloca float, align 4
  %ref.tmp47 = alloca float, align 4
  store ptr %this, ptr %this.addr, align 8
  store i32 %nodeSubPart, ptr %nodeSubPart.addr, align 4
  store i32 %nodeTriangleIndex, ptr %nodeTriangleIndex.addr, align 4
  %this1 = load ptr, ptr %this.addr, align 8
  %m_numOverlap = getelementptr inbounds %struct.MyNodeOverlapCallback.9, ptr %this1, i32 0, i32 4
  %0 = load i32, ptr %m_numOverlap, align 8
  %inc = add nsw i32 %0, 1
  store i32 %inc, ptr %m_numOverlap, align 8
  %m_meshInterface = getelementptr inbounds %struct.MyNodeOverlapCallback.9, ptr %this1, i32 0, i32 1
  %1 = load ptr, ptr %m_meshInterface, align 8
  %2 = load i32, ptr %nodeSubPart.addr, align 4
  %vtable = load ptr, ptr %1, align 8
  %vfn = getelementptr inbounds ptr, ptr %vtable, i64 4
  %3 = load ptr, ptr %vfn, align 8
  call void %3(ptr noundef nonnull align 8 dereferenceable(24) %1, ptr noundef %vertexbase, ptr noundef nonnull align 4 dereferenceable(4) %numverts, ptr noundef nonnull align 4 dereferenceable(4) %type, ptr noundef nonnull align 4 dereferenceable(4) %stride, ptr noundef %indexbase, ptr noundef nonnull align 4 dereferenceable(4) %indexstride, ptr noundef nonnull align 4 dereferenceable(4) %numfaces, ptr noundef nonnull align 4 dereferenceable(4) %indicestype, i32 noundef %2)
  %4 = load ptr, ptr %indexbase, align 8
  %5 = load i32, ptr %nodeTriangleIndex.addr, align 4
  %6 = load i32, ptr %indexstride, align 4
  %mul = mul nsw i32 %5, %6
  %idx.ext = sext i32 %mul to i64
  %add.ptr = getelementptr inbounds i8, ptr %4, i64 %idx.ext
  store ptr %add.ptr, ptr %gfxbase, align 8
  %m_meshInterface2 = getelementptr inbounds %struct.MyNodeOverlapCallback.9, ptr %this1, i32 0, i32 1
  %7 = load ptr, ptr %m_meshInterface2, align 8
  %call = call noundef nonnull align 4 dereferenceable(16) ptr @_ZNK23btStridingMeshInterface10getScalingEv(ptr noundef nonnull align 8 dereferenceable(24) %7)
  store ptr %call, ptr %meshScaling, align 8
  store i32 2, ptr %j, align 4
  br label %for.cond

for.cond:                                         ; preds = %for.inc, %entry
  %8 = load i32, ptr %j, align 4
  %cmp = icmp sge i32 %8, 0
  br i1 %cmp, label %for.body, label %for.end

for.body:                                         ; preds = %for.cond
  %9 = load i32, ptr %indicestype, align 4
  %cmp3 = icmp eq i32 %9, 3
  br i1 %cmp3, label %cond.true, label %cond.false

cond.true:                                        ; preds = %for.body
  %10 = load ptr, ptr %gfxbase, align 8
  %11 = load i32, ptr %j, align 4
  %idxprom = sext i32 %11 to i64
  %arrayidx = getelementptr inbounds i16, ptr %10, i64 %idxprom
  %12 = load i16, ptr %arrayidx, align 2
  %conv = zext i16 %12 to i32
  br label %cond.end12

cond.false:                                       ; preds = %for.body
  %13 = load i32, ptr %indicestype, align 4
  %cmp4 = icmp eq i32 %13, 2
  br i1 %cmp4, label %cond.true5, label %cond.false8

cond.true5:                                       ; preds = %cond.false
  %14 = load ptr, ptr %gfxbase, align 8
  %15 = load i32, ptr %j, align 4
  %idxprom6 = sext i32 %15 to i64
  %arrayidx7 = getelementptr inbounds i32, ptr %14, i64 %idxprom6
  %16 = load i32, ptr %arrayidx7, align 4
  br label %cond.end

cond.false8:                                      ; preds = %cond.false
  %17 = load ptr, ptr %gfxbase, align 8
  %18 = load i32, ptr %j, align 4
  %idxprom9 = sext i32 %18 to i64
  %arrayidx10 = getelementptr inbounds i8, ptr %17, i64 %idxprom9
  %19 = load i8, ptr %arrayidx10, align 1
  %conv11 = zext i8 %19 to i32
  br label %cond.end

cond.end:                                         ; preds = %cond.false8, %cond.true5
  %cond = phi i32 [ %16, %cond.true5 ], [ %conv11, %cond.false8 ]
  br label %cond.end12

cond.end12:                                       ; preds = %cond.end, %cond.true
  %cond13 = phi i32 [ %conv, %cond.true ], [ %cond, %cond.end ]
  store i32 %cond13, ptr %graphicsindex, align 4
  %20 = load i32, ptr %type, align 4
  %cmp14 = icmp eq i32 %20, 0
  br i1 %cmp14, label %if.then, label %if.else

if.then:                                          ; preds = %cond.end12
  %21 = load ptr, ptr %vertexbase, align 8
  %22 = load i32, ptr %graphicsindex, align 4
  %23 = load i32, ptr %stride, align 4
  %mul15 = mul nsw i32 %22, %23
  %idx.ext16 = sext i32 %mul15 to i64
  %add.ptr17 = getelementptr inbounds i8, ptr %21, i64 %idx.ext16
  store ptr %add.ptr17, ptr %graphicsbase, align 8
  %24 = load ptr, ptr %graphicsbase, align 8
  %arrayidx19 = getelementptr inbounds float, ptr %24, i64 0
  %25 = load float, ptr %arrayidx19, align 4
  %26 = load ptr, ptr %meshScaling, align 8
  %call20 = call noundef nonnull align 4 dereferenceable(4) ptr @_ZNK9btVector34getXEv(ptr noundef nonnull align 4 dereferenceable(16) %26)
  %27 = load float, ptr %call20, align 4
  %mul21 = fmul float %25, %27
  store float %mul21, ptr %ref.tmp18, align 4
  %28 = load ptr, ptr %graphicsbase, align 8
  %arrayidx23 = getelementptr inbounds float, ptr %28, i64 1
  %29 = load float, ptr %arrayidx23, align 4
  %30 = load ptr, ptr %meshScaling, align 8
  %call24 = call noundef nonnull align 4 dereferenceable(4) ptr @_ZNK9btVector34getYEv(ptr noundef nonnull align 4 dereferenceable(16) %30)
  %31 = load float, ptr %call24, align 4
  %mul25 = fmul float %29, %31
  store float %mul25, ptr %ref.tmp22, align 4
  %32 = load ptr, ptr %graphicsbase, align 8
  %arrayidx27 = getelementptr inbounds float, ptr %32, i64 2
  %33 = load float, ptr %arrayidx27, align 4
  %34 = load ptr, ptr %meshScaling, align 8
  %call28 = call noundef nonnull align 4 dereferenceable(4) ptr @_ZNK9btVector34getZEv(ptr noundef nonnull align 4 dereferenceable(16) %34)
  %35 = load float, ptr %call28, align 4
  %mul29 = fmul float %33, %35
  store float %mul29, ptr %ref.tmp26, align 4
  call void @_ZN9btVector3C2ERKfS1_S1_(ptr noundef nonnull align 4 dereferenceable(16) %ref.tmp, ptr noundef nonnull align 4 dereferenceable(4) %ref.tmp18, ptr noundef nonnull align 4 dereferenceable(4) %ref.tmp22, ptr noundef nonnull align 4 dereferenceable(4) %ref.tmp26)
  %m_triangle = getelementptr inbounds %struct.MyNodeOverlapCallback.9, ptr %this1, i32 0, i32 3
  %36 = load i32, ptr %j, align 4
  %idxprom30 = sext i32 %36 to i64
  %arrayidx31 = getelementptr inbounds [3 x %class.btVector3], ptr %m_triangle, i64 0, i64 %idxprom30
  call void @llvm.memcpy.p0.p0.i64(ptr align 8 %arrayidx31, ptr align 4 %ref.tmp, i64 16, i1 false)
  br label %if.end

if.else:                                          ; preds = %cond.end12
  %37 = load ptr, ptr %vertexbase, align 8
  %38 = load i32, ptr %graphicsindex, align 4
  %39 = load i32, ptr %stride, align 4
  %mul33 = mul nsw i32 %38, %39
  %idx.ext34 = sext i32 %mul33 to i64
  %add.ptr35 = getelementptr inbounds i8, ptr %37, i64 %idx.ext34
  store ptr %add.ptr35, ptr %graphicsbase32, align 8
  %40 = load ptr, ptr %graphicsbase32, align 8
  %arrayidx38 = getelementptr inbounds double, ptr %40, i64 0
  %41 = load double, ptr %arrayidx38, align 8
  %conv39 = fptrunc double %41 to float
  %42 = load ptr, ptr %meshScaling, align 8
  %call40 = call noundef nonnull align 4 dereferenceable(4) ptr @_ZNK9btVector34getXEv(ptr noundef nonnull align 4 dereferenceable(16) %42)
  %43 = load float, ptr %call40, align 4
  %mul41 = fmul float %conv39, %43
  store float %mul41, ptr %ref.tmp37, align 4
  %44 = load ptr, ptr %graphicsbase32, align 8
  %arrayidx43 = getelementptr inbounds double, ptr %44, i64 1
  %45 = load double, ptr %arrayidx43, align 8
  %conv44 = fptrunc double %45 to float
  %46 = load ptr, ptr %meshScaling, align 8
  %call45 = call noundef nonnull align 4 dereferenceable(4) ptr @_ZNK9btVector34getYEv(ptr noundef nonnull align 4 dereferenceable(16) %46)
  %47 = load float, ptr %call45, align 4
  %mul46 = fmul float %conv44, %47
  store float %mul46, ptr %ref.tmp42, align 4
  %48 = load ptr, ptr %graphicsbase32, align 8
  %arrayidx48 = getelementptr inbounds double, ptr %48, i64 2
  %49 = load double, ptr %arrayidx48, align 8
  %conv49 = fptrunc double %49 to float
  %50 = load ptr, ptr %meshScaling, align 8
  %call50 = call noundef nonnull align 4 dereferenceable(4) ptr @_ZNK9btVector34getZEv(ptr noundef nonnull align 4 dereferenceable(16) %50)
  %51 = load float, ptr %call50, align 4
  %mul51 = fmul float %conv49, %51
  store float %mul51, ptr %ref.tmp47, align 4
  call void @_ZN9btVector3C2ERKfS1_S1_(ptr noundef nonnull align 4 dereferenceable(16) %ref.tmp36, ptr noundef nonnull align 4 dereferenceable(4) %ref.tmp37, ptr noundef nonnull align 4 dereferenceable(4) %ref.tmp42, ptr noundef nonnull align 4 dereferenceable(4) %ref.tmp47)
  %m_triangle52 = getelementptr inbounds %struct.MyNodeOverlapCallback.9, ptr %this1, i32 0, i32 3
  %52 = load i32, ptr %j, align 4
  %idxprom53 = sext i32 %52 to i64
  %arrayidx54 = getelementptr inbounds [3 x %class.btVector3], ptr %m_triangle52, i64 0, i64 %idxprom53
  call void @llvm.memcpy.p0.p0.i64(ptr align 8 %arrayidx54, ptr align 4 %ref.tmp36, i64 16, i1 false)
  br label %if.end

if.end:                                           ; preds = %if.else, %if.then
  br label %for.inc

for.inc:                                          ; preds = %if.end
  %53 = load i32, ptr %j, align 4
  %dec = add nsw i32 %53, -1
  store i32 %dec, ptr %j, align 4
  br label %for.cond, !llvm.loop !12

for.end:                                          ; preds = %for.cond
  %m_callback = getelementptr inbounds %struct.MyNodeOverlapCallback.9, ptr %this1, i32 0, i32 2
  %54 = load ptr, ptr %m_callback, align 8
  %m_triangle55 = getelementptr inbounds %struct.MyNodeOverlapCallback.9, ptr %this1, i32 0, i32 3
  %arraydecay = getelementptr inbounds [3 x %class.btVector3], ptr %m_triangle55, i64 0, i64 0
  %55 = load i32, ptr %nodeSubPart.addr, align 4
  %56 = load i32, ptr %nodeTriangleIndex.addr, align 4
  %vtable56 = load ptr, ptr %54, align 8
  %vfn57 = getelementptr inbounds ptr, ptr %vtable56, i64 2
  %57 = load ptr, ptr %vfn57, align 8
  call void %57(ptr noundef nonnull align 8 dereferenceable(8) %54, ptr noundef %arraydecay, i32 noundef %55, i32 noundef %56)
  %m_meshInterface58 = getelementptr inbounds %struct.MyNodeOverlapCallback.9, ptr %this1, i32 0, i32 1
  %58 = load ptr, ptr %m_meshInterface58, align 8
  %59 = load i32, ptr %nodeSubPart.addr, align 4
  %vtable59 = load ptr, ptr %58, align 8
  %vfn60 = getelementptr inbounds ptr, ptr %vtable59, i64 6
  %60 = load ptr, ptr %vfn60, align 8
  call void %60(ptr noundef nonnull align 8 dereferenceable(24) %58, i32 noundef %59)
  ret void
}