; Function Attrs: mustprogress uwtable
define internal void @_ZZNK22btBvhTriangleMeshShape19processAllTrianglesEP18btTriangleCallbackRK9btVector3S4_EN21MyNodeOverlapCallback11processNodeEii(ptr noundef nonnull align 8 dereferenceable(76) %this, i32 noundef %nodeSubPart, i32 noundef %nodeTriangleIndex) unnamed_addr #0 align 2 {
entry:
  %vertexbase = alloca ptr, align 8
  %numverts = alloca i32, align 4
  %type = alloca i32, align 4
  %stride = alloca i32, align 4
  %indexbase = alloca ptr, align 8
  %indexstride = alloca i32, align 4
  %numfaces = alloca i32, align 4
  %indicestype = alloca i32, align 4
  %m_numOverlap = getelementptr inbounds i8, ptr %this, i64 72
  %0 = load i32, ptr %m_numOverlap, align 8
  %inc = add nsw i32 %0, 1
  store i32 %inc, ptr %m_numOverlap, align 8
  %m_meshInterface = getelementptr inbounds i8, ptr %this, i64 8
  %1 = load ptr, ptr %m_meshInterface, align 8
  %vtable = load ptr, ptr %1, align 8
  %vfn = getelementptr inbounds i8, ptr %vtable, i64 32
  %2 = load ptr, ptr %vfn, align 8
  call void %2(ptr noundef nonnull align 8 dereferenceable(24) %1, ptr noundef nonnull %vertexbase, ptr noundef nonnull align 4 dereferenceable(4) %numverts, ptr noundef nonnull align 4 dereferenceable(4) %type, ptr noundef nonnull align 4 dereferenceable(4) %stride, ptr noundef nonnull %indexbase, ptr noundef nonnull align 4 dereferenceable(4) %indexstride, ptr noundef nonnull align 4 dereferenceable(4) %numfaces, ptr noundef nonnull align 4 dereferenceable(4) %indicestype, i32 noundef %nodeSubPart)
  %3 = load ptr, ptr %indexbase, align 8
  %4 = load i32, ptr %indexstride, align 4
  %mul = mul nsw i32 %4, %nodeTriangleIndex
  %idx.ext = sext i32 %mul to i64
  %add.ptr = getelementptr inbounds i8, ptr %3, i64 %idx.ext
  %5 = load ptr, ptr %m_meshInterface, align 8
  %m_scaling.i = getelementptr inbounds i8, ptr %5, i64 8
  %6 = load i32, ptr %indicestype, align 4
  %7 = load i32, ptr %type, align 4
  %cmp14 = icmp eq i32 %7, 0
  %8 = load ptr, ptr %vertexbase, align 8
  %9 = load i32, ptr %stride, align 4
  %arrayidx.i24 = getelementptr inbounds i8, ptr %5, i64 16
  %m_triangle52 = getelementptr inbounds i8, ptr %this, i64 24
  br i1 %cmp14, label %for.body.us, label %entry.split

for.body.us:                                      ; preds = %entry, %cond.end12.us
  %indvars.iv75 = phi i64 [ %indvars.iv.next76, %cond.end12.us ], [ 2, %entry ]
  switch i32 %6, label %cond.false8.us [
    i32 3, label %cond.true.us
    i32 2, label %cond.true5.us
  ]

cond.true5.us:                                    ; preds = %for.body.us
  %arrayidx7.us = getelementptr inbounds i32, ptr %add.ptr, i64 %indvars.iv75
  %10 = load i32, ptr %arrayidx7.us, align 4
  br label %cond.end12.us

cond.true.us:                                     ; preds = %for.body.us
  %arrayidx.us = getelementptr inbounds i16, ptr %add.ptr, i64 %indvars.iv75
  %11 = load i16, ptr %arrayidx.us, align 2
  %conv.us = zext i16 %11 to i32
  br label %cond.end12.us

cond.false8.us:                                   ; preds = %for.body.us
  %arrayidx10.us = getelementptr inbounds i8, ptr %add.ptr, i64 %indvars.iv75
  %12 = load i8, ptr %arrayidx10.us, align 1
  %conv11.us = zext i8 %12 to i32
  br label %cond.end12.us

cond.end12.us:                                    ; preds = %cond.false8.us, %cond.true.us, %cond.true5.us
  %cond13.us = phi i32 [ %conv.us, %cond.true.us ], [ %10, %cond.true5.us ], [ %conv11.us, %cond.false8.us ]
  %mul15.us = mul nsw i32 %9, %cond13.us
  %idx.ext16.us = sext i32 %mul15.us to i64
  %add.ptr17.us = getelementptr inbounds i8, ptr %8, i64 %idx.ext16.us
  %arrayidx27.us = getelementptr inbounds i8, ptr %add.ptr17.us, i64 8
  %13 = load float, ptr %arrayidx27.us, align 4
  %14 = load float, ptr %arrayidx.i24, align 4
  %mul29.us = fmul float %13, %14
  %arrayidx31.us = getelementptr inbounds [3 x %class.btVector3], ptr %m_triangle52, i64 0, i64 %indvars.iv75
  %15 = load <2 x float>, ptr %add.ptr17.us, align 4
  %16 = load <2 x float>, ptr %m_scaling.i, align 4
  %17 = fmul <2 x float> %15, %16
  store <2 x float> %17, ptr %arrayidx31.us, align 8
  %ref.tmp.sroa.3.0.arrayidx31.sroa_idx.us = getelementptr inbounds i8, ptr %arrayidx31.us, i64 8
  store float %mul29.us, ptr %ref.tmp.sroa.3.0.arrayidx31.sroa_idx.us, align 8
  %ref.tmp.sroa.4.0.arrayidx31.sroa_idx.us = getelementptr inbounds i8, ptr %arrayidx31.us, i64 12
  store float 0.000000e+00, ptr %ref.tmp.sroa.4.0.arrayidx31.sroa_idx.us, align 4
  %indvars.iv.next76 = add nsw i64 %indvars.iv75, -1
  %cmp.us.not = icmp eq i64 %indvars.iv75, 0
  br i1 %cmp.us.not, label %for.end, label %for.body.us, !llvm.loop !8

entry.split:                                      ; preds = %entry
  switch i32 %6, label %for.body [
    i32 3, label %for.body.us29
    i32 2, label %for.body.us40
  ]

for.body.us29:                                    ; preds = %entry.split, %for.body.us29
  %indvars.iv69 = phi i64 [ %indvars.iv.next70, %for.body.us29 ], [ 2, %entry.split ]
  %arrayidx.us33 = getelementptr inbounds i16, ptr %add.ptr, i64 %indvars.iv69
  %18 = load i16, ptr %arrayidx.us33, align 2
  %conv.us34 = zext i16 %18 to i32
  %mul33.us = mul nsw i32 %9, %conv.us34
  %idx.ext34.us = sext i32 %mul33.us to i64
  %add.ptr35.us = getelementptr inbounds i8, ptr %8, i64 %idx.ext34.us
  %arrayidx48.us = getelementptr inbounds i8, ptr %add.ptr35.us, i64 16
  %19 = load double, ptr %arrayidx48.us, align 8
  %conv49.us = fptrunc double %19 to float
  %20 = load float, ptr %arrayidx.i24, align 4
  %mul51.us = fmul float %20, %conv49.us
  %arrayidx54.us = getelementptr inbounds [3 x %class.btVector3], ptr %m_triangle52, i64 0, i64 %indvars.iv69
  %21 = load <2 x double>, ptr %add.ptr35.us, align 8
  %22 = fptrunc <2 x double> %21 to <2 x float>
  %23 = load <2 x float>, ptr %m_scaling.i, align 4
  %24 = fmul <2 x float> %23, %22
  store <2 x float> %24, ptr %arrayidx54.us, align 8
  %ref.tmp36.sroa.3.0.arrayidx54.sroa_idx.us = getelementptr inbounds i8, ptr %arrayidx54.us, i64 8
  store float %mul51.us, ptr %ref.tmp36.sroa.3.0.arrayidx54.sroa_idx.us, align 8
  %ref.tmp36.sroa.4.0.arrayidx54.sroa_idx.us = getelementptr inbounds i8, ptr %arrayidx54.us, i64 12
  store float 0.000000e+00, ptr %ref.tmp36.sroa.4.0.arrayidx54.sroa_idx.us, align 4
  %indvars.iv.next70 = add nsw i64 %indvars.iv69, -1
  %cmp.us38.not = icmp eq i64 %indvars.iv69, 0
  br i1 %cmp.us38.not, label %for.end, label %for.body.us29, !llvm.loop !8

for.body.us40:                                    ; preds = %entry.split, %for.body.us40
  %indvars.iv = phi i64 [ %indvars.iv.next, %for.body.us40 ], [ 2, %entry.split ]
  %arrayidx7.us44 = getelementptr inbounds i32, ptr %add.ptr, i64 %indvars.iv
  %25 = load i32, ptr %arrayidx7.us44, align 4
  %mul33.us47 = mul nsw i32 %9, %25
  %idx.ext34.us48 = sext i32 %mul33.us47 to i64
  %add.ptr35.us49 = getelementptr inbounds i8, ptr %8, i64 %idx.ext34.us48
  %arrayidx48.us55 = getelementptr inbounds i8, ptr %add.ptr35.us49, i64 16
  %26 = load double, ptr %arrayidx48.us55, align 8
  %conv49.us56 = fptrunc double %26 to float
  %27 = load float, ptr %arrayidx.i24, align 4
  %mul51.us57 = fmul float %27, %conv49.us56
  %arrayidx54.us59 = getelementptr inbounds [3 x %class.btVector3], ptr %m_triangle52, i64 0, i64 %indvars.iv
  %28 = load <2 x double>, ptr %add.ptr35.us49, align 8
  %29 = fptrunc <2 x double> %28 to <2 x float>
  %30 = load <2 x float>, ptr %m_scaling.i, align 4
  %31 = fmul <2 x float> %30, %29
  store <2 x float> %31, ptr %arrayidx54.us59, align 8
  %ref.tmp36.sroa.3.0.arrayidx54.sroa_idx.us61 = getelementptr inbounds i8, ptr %arrayidx54.us59, i64 8
  store float %mul51.us57, ptr %ref.tmp36.sroa.3.0.arrayidx54.sroa_idx.us61, align 8
  %ref.tmp36.sroa.4.0.arrayidx54.sroa_idx.us62 = getelementptr inbounds i8, ptr %arrayidx54.us59, i64 12
  store float 0.000000e+00, ptr %ref.tmp36.sroa.4.0.arrayidx54.sroa_idx.us62, align 4
  %indvars.iv.next = add nsw i64 %indvars.iv, -1
  %cmp.us64.not = icmp eq i64 %indvars.iv, 0
  br i1 %cmp.us64.not, label %for.end, label %for.body.us40, !llvm.loop !8

for.body:                                         ; preds = %entry.split, %for.body
  %indvars.iv72 = phi i64 [ %indvars.iv.next73, %for.body ], [ 2, %entry.split ]
  %arrayidx10 = getelementptr inbounds i8, ptr %add.ptr, i64 %indvars.iv72
  %32 = load i8, ptr %arrayidx10, align 1
  %conv11 = zext i8 %32 to i32
  %mul33 = mul nsw i32 %9, %conv11
  %idx.ext34 = sext i32 %mul33 to i64
  %add.ptr35 = getelementptr inbounds i8, ptr %8, i64 %idx.ext34
  %arrayidx48 = getelementptr inbounds i8, ptr %add.ptr35, i64 16
  %33 = load double, ptr %arrayidx48, align 8
  %conv49 = fptrunc double %33 to float
  %34 = load float, ptr %arrayidx.i24, align 4
  %mul51 = fmul float %34, %conv49
  %arrayidx54 = getelementptr inbounds [3 x %class.btVector3], ptr %m_triangle52, i64 0, i64 %indvars.iv72
  %35 = load <2 x double>, ptr %add.ptr35, align 8
  %36 = fptrunc <2 x double> %35 to <2 x float>
  %37 = load <2 x float>, ptr %m_scaling.i, align 4
  %38 = fmul <2 x float> %37, %36
  store <2 x float> %38, ptr %arrayidx54, align 8
  %ref.tmp36.sroa.3.0.arrayidx54.sroa_idx = getelementptr inbounds i8, ptr %arrayidx54, i64 8
  store float %mul51, ptr %ref.tmp36.sroa.3.0.arrayidx54.sroa_idx, align 8
  %ref.tmp36.sroa.4.0.arrayidx54.sroa_idx = getelementptr inbounds i8, ptr %arrayidx54, i64 12
  store float 0.000000e+00, ptr %ref.tmp36.sroa.4.0.arrayidx54.sroa_idx, align 4
  %indvars.iv.next73 = add nsw i64 %indvars.iv72, -1
  %cmp.not = icmp eq i64 %indvars.iv72, 0
  br i1 %cmp.not, label %for.end, label %for.body, !llvm.loop !8

for.end:                                          ; preds = %for.body.us40, %for.body.us29, %for.body, %cond.end12.us
  %m_callback = getelementptr inbounds i8, ptr %this, i64 16
  %39 = load ptr, ptr %m_callback, align 8
  %vtable56 = load ptr, ptr %39, align 8
  %vfn57 = getelementptr inbounds i8, ptr %vtable56, i64 16
  %40 = load ptr, ptr %vfn57, align 8
  call void %40(ptr noundef nonnull align 8 dereferenceable(8) %39, ptr noundef nonnull %m_triangle52, i32 noundef %nodeSubPart, i32 noundef %nodeTriangleIndex)
  %41 = load ptr, ptr %m_meshInterface, align 8
  %vtable59 = load ptr, ptr %41, align 8
  %vfn60 = getelementptr inbounds i8, ptr %vtable59, i64 48
  %42 = load ptr, ptr %vfn60, align 8
  call void %42(ptr noundef nonnull align 8 dereferenceable(24) %41, i32 noundef %nodeSubPart)
  ret void
}